target datalayout = "e-m:e-p270:32:32-p271:32:32-p272:64:64-i64:64-i128:128-f80:128-n8:16:32:64-S128"
target triple = "x86_64-pc-linux-gnu"

%struct._zval_struct = type { %union._zend_value, %union.anon.3, %union.anon.6 }
%union._zend_value = type { i64 }
%union.anon.3 = type { i32 }
%union.anon.6 = type { i32 }
%struct._zend_array = type { %struct._zend_refcounted_h, %union.anon.0, i32, %union.anon.1, i32, i32, i32, i32, i64, ptr }
%struct._zend_refcounted_h = type { i32, %union.anon }
%union.anon = type { i32 }
%union.anon.0 = type { i32 }
%union.anon.1 = type { ptr }
%struct._spl_SplObjectStorage = type { %struct._zend_array, i64, i32, i64, ptr, %struct._zend_object }
%struct._zend_object = type { %struct._zend_refcounted_h, i32, ptr, ptr, ptr, [1 x %struct._zval_struct] }
%struct._zend_hash_key = type { i64, ptr }

@spl_ce_RuntimeException = external global ptr, align 8
@.str.15 = private unnamed_addr constant [8 x i8] c"getHash\00", align 1
@.str.16 = private unnamed_addr constant [26 x i8] c"Hash needs to be a string\00", align 1

; Function Attrs: nounwind uwtable
define internal void @spl_object_storage_free_hash(ptr noundef %0, ptr noundef %1) #0 {
  %3 = alloca ptr, align 8
  %4 = alloca i32, align 4
  %5 = alloca ptr, align 8
  %6 = alloca i8, align 1
  %7 = alloca ptr, align 8
  %8 = alloca ptr, align 8
  store ptr %0, ptr %7, align 8
  store ptr %1, ptr %8, align 8
  %9 = load ptr, ptr %8, align 8
  %10 = getelementptr inbounds %struct._zend_hash_key, ptr %9, i32 0, i32 1
  %11 = load ptr, ptr %10, align 8
  %12 = icmp ne ptr %11, null
  br i1 %12, label %13, label %43

13:                                               ; preds = %2
  %14 = load ptr, ptr %8, align 8
  %15 = getelementptr inbounds %struct._zend_hash_key, ptr %14, i32 0, i32 1
  %16 = load ptr, ptr %15, align 8
  store ptr %16, ptr %5, align 8
  store i8 0, ptr %6, align 1
  %17 = load ptr, ptr %5, align 8
  %18 = getelementptr inbounds %struct._zend_refcounted_h, ptr %17, i32 0, i32 1
  %19 = load i32, ptr %18, align 4
  store i32 %19, ptr %4, align 4
  %20 = load i32, ptr %4, align 4
  %21 = and i32 %20, 1008
  %22 = and i32 %21, 64
  %23 = icmp ne i32 %22, 0
  br i1 %23, label %42, label %24

24:                                               ; preds = %13
  %25 = load ptr, ptr %5, align 8
  store ptr %25, ptr %3, align 8
  %26 = load ptr, ptr %3, align 8
  %27 = load i32, ptr %26, align 4
  %28 = icmp ugt i32 %27, 0
  call void @llvm.assume(i1 %28)
  %29 = load ptr, ptr %3, align 8
  %30 = load i32, ptr %29, align 4
  %31 = add i32 %30, -1
  store i32 %31, ptr %29, align 4
  %32 = icmp eq i32 %31, 0
  br i1 %32, label %33, label %41

33:                                               ; preds = %24
  %34 = load i8, ptr %6, align 1
  %35 = trunc i8 %34 to i1
  br i1 %35, label %36, label %38

36:                                               ; preds = %33
  %37 = load ptr, ptr %5, align 8
  call void @free(ptr noundef %37) #10
  br label %40

38:                                               ; preds = %33
  %39 = load ptr, ptr %5, align 8
  call void @_efree(ptr noundef %39) #10
  br label %40

40:                                               ; preds = %38, %36
  br label %41

41:                                               ; preds = %40, %24
  br label %42

42:                                               ; preds = %41, %13
  br label %43

43:                                               ; preds = %42, %2
  ret void
}

; Function Attrs: nounwind uwtable
define internal i32 @spl_object_storage_get_hash(ptr noundef %0, ptr noundef %1, ptr noundef %2) #0 {
  %4 = alloca ptr, align 8
  %5 = alloca ptr, align 8
  %6 = alloca ptr, align 8
  %7 = alloca ptr, align 8
  %8 = alloca ptr, align 8
  %9 = alloca ptr, align 8
  %10 = alloca ptr, align 8
  %11 = alloca ptr, align 8
  %12 = alloca i32, align 4
  %13 = alloca ptr, align 8
  %14 = alloca ptr, align 8
  %15 = alloca ptr, align 8
  %16 = alloca %struct._zval_struct, align 8
  %17 = alloca %struct._zval_struct, align 8
  %18 = alloca ptr, align 8
  store ptr %0, ptr %13, align 8
  store ptr %1, ptr %14, align 8
  store ptr %2, ptr %15, align 8
  %19 = load ptr, ptr %14, align 8
  %20 = getelementptr inbounds %struct._spl_SplObjectStorage, ptr %19, i32 0, i32 4
  %21 = load ptr, ptr %20, align 8
  %22 = icmp ne ptr %21, null
  %23 = xor i1 %22, true
  %24 = xor i1 %23, true
  %25 = zext i1 %24 to i32
  %26 = sext i32 %25 to i64
  %27 = icmp ne i64 %26, 0
  br i1 %27, label %28, label %73

28:                                               ; preds = %3
  br label %29

29:                                               ; preds = %28
  store ptr %16, ptr %18, align 8
  %30 = load ptr, ptr %15, align 8
  %31 = load ptr, ptr %18, align 8
  %32 = getelementptr inbounds %struct._zval_struct, ptr %31, i32 0, i32 0
  store ptr %30, ptr %32, align 8
  %33 = load ptr, ptr %18, align 8
  %34 = getelementptr inbounds %struct._zval_struct, ptr %33, i32 0, i32 1
  store i32 776, ptr %34, align 8
  br label %35

35:                                               ; preds = %29
  %36 = load ptr, ptr %14, align 8
  %37 = getelementptr inbounds %struct._spl_SplObjectStorage, ptr %36, i32 0, i32 5
  %38 = load ptr, ptr %14, align 8
  %39 = getelementptr inbounds %struct._spl_SplObjectStorage, ptr %38, i32 0, i32 5
  %40 = getelementptr inbounds %struct._zend_object, ptr %39, i32 0, i32 2
  %41 = load ptr, ptr %40, align 8
  %42 = load ptr, ptr %14, align 8
  %43 = getelementptr inbounds %struct._spl_SplObjectStorage, ptr %42, i32 0, i32 4
  store ptr %37, ptr %4, align 8
  store ptr %41, ptr %5, align 8
  store ptr %43, ptr %6, align 8
  store ptr @.str.15, ptr %7, align 8
  store ptr %17, ptr %8, align 8
  store ptr %16, ptr %9, align 8
  %44 = load ptr, ptr %4, align 8
  %45 = load ptr, ptr %5, align 8
  %46 = load ptr, ptr %6, align 8
  %47 = load ptr, ptr %7, align 8
  %48 = load ptr, ptr %7, align 8
  %49 = call i64 @strlen(ptr noundef %48) #12
  %50 = load ptr, ptr %8, align 8
  %51 = load ptr, ptr %9, align 8
  %52 = call ptr @zend_call_method(ptr noundef %44, ptr noundef %45, ptr noundef %46, ptr noundef %47, i64 noundef %49, ptr noundef %50, i32 noundef 1, ptr noundef %51, ptr noundef null) #10
  store ptr %17, ptr %10, align 8
  %53 = load ptr, ptr %10, align 8
  %54 = getelementptr inbounds %struct._zval_struct, ptr %53, i32 0, i32 1
  %55 = load i8, ptr %54, align 8
  %56 = zext i8 %55 to i32
  %57 = icmp eq i32 %56, 0
  br i1 %57, label %72, label %58

58:                                               ; preds = %35
  store ptr %17, ptr %11, align 8
  %59 = load ptr, ptr %11, align 8
  %60 = getelementptr inbounds %struct._zval_struct, ptr %59, i32 0, i32 1
  %61 = load i8, ptr %60, align 8
  %62 = zext i8 %61 to i32
  %63 = icmp eq i32 %62, 6
  br i1 %63, label %64, label %69

64:                                               ; preds = %58
  %65 = getelementptr inbounds %struct._zval_struct, ptr %17, i32 0, i32 0
  %66 = load ptr, ptr %65, align 8
  %67 = load ptr, ptr %13, align 8
  %68 = getelementptr inbounds %struct._zend_hash_key, ptr %67, i32 0, i32 1
  store ptr %66, ptr %68, align 8
  store i32 0, ptr %12, align 4
  br label %82

69:                                               ; preds = %58
  %70 = load ptr, ptr @spl_ce_RuntimeException, align 8
  %71 = call ptr @zend_throw_exception(ptr noundef %70, ptr noundef @.str.16, i64 noundef 0)
  call void @zval_ptr_dtor(ptr noundef %17)
  store i32 -1, ptr %12, align 4
  br label %82

72:                                               ; preds = %35
  store i32 -1, ptr %12, align 4
  br label %82

73:                                               ; preds = %3
  %74 = load ptr, ptr %13, align 8
  %75 = getelementptr inbounds %struct._zend_hash_key, ptr %74, i32 0, i32 1
  store ptr null, ptr %75, align 8
  %76 = load ptr, ptr %15, align 8
  %77 = getelementptr inbounds %struct._zend_object, ptr %76, i32 0, i32 1
  %78 = load i32, ptr %77, align 8
  %79 = zext i32 %78 to i64
  %80 = load ptr, ptr %13, align 8
  %81 = getelementptr inbounds %struct._zend_hash_key, ptr %80, i32 0, i32 0
  store i64 %79, ptr %81, align 8
  store i32 0, ptr %12, align 4
  br label %82

82:                                               ; preds = %73, %72, %69, %64
  %83 = load i32, ptr %12, align 4
  ret i32 %83
}

; Function Attrs: nounwind uwtable
define internal i32 @spl_object_storage_detach(ptr noundef %0, ptr noundef %1) #0 {
  %3 = alloca i32, align 4
  %4 = alloca ptr, align 8
  %5 = alloca ptr, align 8
  %6 = alloca i32, align 4
  %7 = alloca %struct._zend_hash_key, align 8
  store ptr %0, ptr %4, align 8
  store ptr %1, ptr %5, align 8
  %8 = load ptr, ptr %4, align 8
  %9 = getelementptr inbounds %struct._spl_SplObjectStorage, ptr %8, i32 0, i32 3
  %10 = load i64, ptr %9, align 8
  %11 = and i64 %10, 4
  %12 = icmp ne i64 %11, 0
  %13 = xor i1 %12, true
  %14 = xor i1 %13, true
  %15 = xor i1 %14, true
  %16 = zext i1 %15 to i32
  %17 = sext i32 %16 to i64
  %18 = icmp ne i64 %17, 0
  br i1 %18, label %19, label %27

19:                                               ; preds = %2
  %20 = load ptr, ptr %4, align 8
  %21 = getelementptr inbounds %struct._spl_SplObjectStorage, ptr %20, i32 0, i32 0
  %22 = load ptr, ptr %5, align 8
  %23 = getelementptr inbounds %struct._zend_object, ptr %22, i32 0, i32 1
  %24 = load i32, ptr %23, align 8
  %25 = zext i32 %24 to i64
  %26 = call i32 @zend_hash_index_del(ptr noundef %21, i64 noundef %25)
  store i32 %26, ptr %3, align 4
  br label %53

27:                                               ; preds = %2
  store i32 -1, ptr %6, align 4
  %28 = load ptr, ptr %4, align 8
  %29 = load ptr, ptr %5, align 8
  %30 = call i32 @spl_object_storage_get_hash(ptr noundef %7, ptr noundef %28, ptr noundef %29)
  %31 = icmp eq i32 %30, -1
  br i1 %31, label %32, label %34

32:                                               ; preds = %27
  %33 = load i32, ptr %6, align 4
  store i32 %33, ptr %3, align 4
  br label %53

34:                                               ; preds = %27
  %35 = getelementptr inbounds %struct._zend_hash_key, ptr %7, i32 0, i32 1
  %36 = load ptr, ptr %35, align 8
  %37 = icmp ne ptr %36, null
  br i1 %37, label %38, label %44

38:                                               ; preds = %34
  %39 = load ptr, ptr %4, align 8
  %40 = getelementptr inbounds %struct._spl_SplObjectStorage, ptr %39, i32 0, i32 0
  %41 = getelementptr inbounds %struct._zend_hash_key, ptr %7, i32 0, i32 1
  %42 = load ptr, ptr %41, align 8
  %43 = call i32 @zend_hash_del(ptr noundef %40, ptr noundef %42)
  store i32 %43, ptr %6, align 4
  br label %50

44:                                               ; preds = %34
  %45 = load ptr, ptr %4, align 8
  %46 = getelementptr inbounds %struct._spl_SplObjectStorage, ptr %45, i32 0, i32 0
  %47 = getelementptr inbounds %struct._zend_hash_key, ptr %7, i32 0, i32 0
  %48 = load i64, ptr %47, align 8
  %49 = call i32 @zend_hash_index_del(ptr noundef %46, i64 noundef %48)
  store i32 %49, ptr %6, align 4
  br label %50

50:                                               ; preds = %44, %38
  %51 = load ptr, ptr %4, align 8
  call void @spl_object_storage_free_hash(ptr noundef %51, ptr noundef %7)
  %52 = load i32, ptr %6, align 4
  store i32 %52, ptr %3, align 4
  br label %53

53:                                               ; preds = %50, %32, %19
  %54 = load i32, ptr %3, align 4
  ret i32 %54
}