; Function Attrs: nounwind uwtable
define internal fastcc i32 @spl_object_storage_detach(ptr noundef %0, ptr noundef %1) unnamed_addr #0 {
  %3 = alloca %struct._zval_struct, align 8
  %4 = alloca %struct._zval_struct, align 8
  %5 = getelementptr inbounds i8, ptr %0, i64 72
  %6 = load i64, ptr %5, align 8
  %7 = and i64 %6, 4
  %.not = icmp eq i64 %7, 0
  br i1 %.not, label %8, label %13

8:                                                ; preds = %2
  %9 = getelementptr inbounds i8, ptr %1, i64 8
  %10 = load i32, ptr %9, align 8
  %11 = zext i32 %10 to i64
  %12 = tail call i32 @zend_hash_index_del(ptr noundef nonnull %0, i64 noundef %11) #10
  br label %spl_object_storage_free_hash.exit

13:                                               ; preds = %2
  call void @llvm.lifetime.start.p0(i64 16, ptr nonnull %3)
  call void @llvm.lifetime.start.p0(i64 16, ptr nonnull %4)
  %14 = getelementptr inbounds i8, ptr %0, i64 80
  %15 = load ptr, ptr %14, align 8
  %.not.i = icmp eq ptr %15, null
  br i1 %.not.i, label %.thread, label %16

16:                                               ; preds = %13
  store ptr %1, ptr %3, align 8
  %17 = getelementptr inbounds i8, ptr %3, i64 8
  store i32 776, ptr %17, align 8
  %18 = getelementptr inbounds i8, ptr %0, i64 88
  %19 = getelementptr inbounds i8, ptr %0, i64 104
  %20 = load ptr, ptr %19, align 8
  %21 = call ptr @zend_call_method(ptr noundef nonnull %18, ptr noundef %20, ptr noundef nonnull %14, ptr noundef nonnull @.str.15, i64 noundef 7, ptr noundef nonnull %4, i32 noundef 1, ptr noundef nonnull %3, ptr noundef null) #10
  %22 = getelementptr inbounds i8, ptr %4, i64 8
  %23 = load i8, ptr %22, align 8
  switch i8 %23, label %24 [
    i8 0, label %spl_object_storage_get_hash.exit.thread
    i8 6, label %31
  ]

24:                                               ; preds = %16
  %25 = load ptr, ptr @spl_ce_RuntimeException, align 8
  %26 = call ptr @zend_throw_exception(ptr noundef %25, ptr noundef nonnull @.str.16, i64 noundef 0) #10
  call void @zval_ptr_dtor(ptr noundef nonnull %4) #10
  br label %spl_object_storage_get_hash.exit.thread

.thread:                                          ; preds = %13
  %27 = getelementptr inbounds i8, ptr %1, i64 8
  %28 = load i32, ptr %27, align 8
  %29 = zext i32 %28 to i64
  call void @llvm.lifetime.end.p0(i64 16, ptr nonnull %3)
  call void @llvm.lifetime.end.p0(i64 16, ptr nonnull %4)
  %30 = tail call i32 @zend_hash_index_del(ptr noundef nonnull %0, i64 noundef %29) #10
  br label %spl_object_storage_free_hash.exit

spl_object_storage_get_hash.exit.thread:          ; preds = %24, %16
  call void @llvm.lifetime.end.p0(i64 16, ptr nonnull %3)
  call void @llvm.lifetime.end.p0(i64 16, ptr nonnull %4)
  br label %spl_object_storage_free_hash.exit

31:                                               ; preds = %16
  %32 = load ptr, ptr %4, align 8, !nonnull !4, !noundef !4
  call void @llvm.lifetime.end.p0(i64 16, ptr nonnull %3)
  call void @llvm.lifetime.end.p0(i64 16, ptr nonnull %4)
  %33 = call i32 @zend_hash_del(ptr noundef nonnull %0, ptr noundef nonnull %32) #10
  %34 = getelementptr inbounds i8, ptr %32, i64 4
  %35 = load i32, ptr %34, align 4
  %36 = and i32 %35, 64
  %.not9.i = icmp eq i32 %36, 0
  br i1 %.not9.i, label %37, label %spl_object_storage_free_hash.exit

37:                                               ; preds = %31
  %38 = load i32, ptr %32, align 4
  %39 = icmp ne i32 %38, 0
  call void @llvm.assume(i1 %39)
  %40 = add i32 %38, -1
  store i32 %40, ptr %32, align 4
  %41 = icmp eq i32 %40, 0
  br i1 %41, label %42, label %spl_object_storage_free_hash.exit

42:                                               ; preds = %37
  call void @_efree(ptr noundef nonnull %32) #10
  br label %spl_object_storage_free_hash.exit

spl_object_storage_free_hash.exit:                ; preds = %42, %37, %31, %.thread, %spl_object_storage_get_hash.exit.thread, %8
  %.010 = phi i32 [ %12, %8 ], [ -1, %spl_object_storage_get_hash.exit.thread ], [ %30, %.thread ], [ %33, %31 ], [ %33, %37 ], [ %33, %42 ]
  ret i32 %.010
}